(dp1
S'sg_version_data'
p2
(dp3
S'description'
p4
S'[minor] Removes log_error call that was in place for debugging purposes.'
p5
sS'sg_payload'
p6
(dp7
S'name'
p8
S'tk-multi-publish_v0.9.4.zip'
p9
sS'url'
p10
S'https://tank.shotgunstudio.com/file_serve/attachment/14088'
p11
sS'content_type'
p12
S'application/zip'
p13
sS'type'
p14
S'Attachment'
p15
sS'id'
p16
I14088
sS'link_type'
p17
S'upload'
p18
ssS'sg_detailed_release_notes'
p19
(dp20
S'name'
p21
S'v0.9.4'
p22
sS'url'
p23
S'https://support.shotgunsoftware.com/hc/en-us/articles/219032998#v0.9.4'
p24
sS'content_type'
p25
NsS'type'
p26
S'Attachment'
p27
sS'id'
p28
I14085
sS'link_type'
p29
S'web'
p30
ssS'sg_documentation'
p31
(dp32
S'name'
p33
S'Documentation'
p34
sS'url'
p35
S'https://support.shotgunsoftware.com/hc/en-us/articles/219032998'
p36
sS'content_type'
p37
NsS'type'
p38
S'Attachment'
p39
sS'id'
p40
I14087
sS'link_type'
p41
S'web'
p42
ssS'type'
p43
S'CustomNonProjectEntity05'
p44
sS'id'
p45
I2094
ssS'sg_bundle_data'
p46
(dp47
S'sg_status_list'
p48
S'depl'
p49
sS'type'
p50
S'CustomNonProjectEntity02'
p51
sS'id'
p52
I54
sS'sg_deprecation_message'
p53
Nss.