(dp1
S'sg_version_data'
p2
(dp3
S'description'
p4
S'Updates the framework dependencies to the latest major version.'
p5
sS'sg_payload'
p6
(dp7
S'name'
p8
S'tk-framework-widget_v0.2.4.zip'
p9
sS'url'
p10
S'https://tank.shotgunstudio.com/file_serve/attachment/14204'
p11
sS'content_type'
p12
S'application/zip'
p13
sS'type'
p14
S'Attachment'
p15
sS'id'
p16
I14204
sS'link_type'
p17
S'upload'
p18
ssS'sg_detailed_release_notes'
p19
NsS'sg_documentation'
p20
NsS'type'
p21
S'CustomNonProjectEntity09'
p22
sS'id'
p23
I438
ssS'sg_bundle_data'
p24
(dp25
S'sg_status_list'
p26
S'hidden'
p27
sS'type'
p28
S'CustomNonProjectEntity13'
p29
sS'id'
p30
I1
sS'sg_deprecation_message'
p31
Nss.